; Function Attrs: mustprogress uwtable
define void @_ZN27ModulePreferencesScrollArea31enumComboBoxCurrentIndexChangedEi(ptr noundef nonnull align 8 dereferenceable(56) %0, i32 noundef %1) #0 align 2 personality ptr @__gxx_personality_v0 {
  %3 = alloca %class.QVariant, align 8
  %4 = alloca %class.QVariant, align 8
  %5 = tail call noundef ptr @_ZNK7QObject6senderEv(ptr noundef nonnull align 8 dereferenceable(16) %0)
  %6 = tail call noundef ptr @_ZNK11QMetaObject4castEPK7QObject(ptr noundef nonnull align 8 dereferenceable(56) @_ZN9QComboBox16staticMetaObjectE, ptr noundef %5)
  %.not = icmp eq ptr %6, null
  br i1 %.not, label %17, label %7

7:                                                ; preds = %2
  %8 = load ptr, ptr @pref_prop_, align 8
  call void @_ZNK7QObject8propertyEPKc(ptr dead_on_unwind nonnull writable sret(%class.QVariant) align 8 %3, ptr noundef nonnull align 8 dereferenceable(16) %6, ptr noundef %8)
  %9 = invoke noundef ptr @_Z13qvariant_castIPvET_RK8QVariant(ptr noundef nonnull align 8 dereferenceable(32) %3)
          to label %_ZN14VariantPointerI10preferenceE5asPtrE8QVariant.exit unwind label %10

_ZN14VariantPointerI10preferenceE5asPtrE8QVariant.exit: ; preds = %7
  call void @_ZN8QVariantD1Ev(ptr noundef nonnull align 8 dereferenceable(32) %3) #15
  %.not11 = icmp eq ptr %9, null
  br i1 %.not11, label %17, label %12

10:                                               ; preds = %7
  %11 = landingpad { ptr, i32 }
          cleanup
  br label %20

12:                                               ; preds = %_ZN14VariantPointerI10preferenceE5asPtrE8QVariant.exit
  call void @_ZNK9QComboBox8itemDataEii(ptr dead_on_unwind nonnull writable sret(%class.QVariant) align 8 %4, ptr noundef nonnull align 8 dereferenceable(40) %6, i32 noundef %1, i32 noundef 256)
  %13 = invoke noundef i32 @_ZNK8QVariant5toIntEPb(ptr noundef nonnull align 8 dereferenceable(32) %4, ptr noundef null)
          to label %14 unwind label %18

14:                                               ; preds = %12
  %15 = invoke i32 @prefs_set_enum_value(ptr noundef nonnull %9, i32 noundef %13, i32 noundef 1)
          to label %16 unwind label %18

16:                                               ; preds = %14
  call void @_ZN8QVariantD1Ev(ptr noundef nonnull align 8 dereferenceable(32) %4) #15
  br label %17

17:                                               ; preds = %_ZN14VariantPointerI10preferenceE5asPtrE8QVariant.exit, %2, %16
  ret void

18:                                               ; preds = %14, %12
  %19 = landingpad { ptr, i32 }
          cleanup
  br label %20

20:                                               ; preds = %18, %10
  %.sink = phi ptr [ %4, %18 ], [ %3, %10 ]
  %.pn = phi { ptr, i32 } [ %19, %18 ], [ %11, %10 ]
  call void @_ZN8QVariantD1Ev(ptr noundef nonnull align 8 dereferenceable(32) %.sink) #15
  resume { ptr, i32 } %.pn
}